; ModuleID = '16/286.c'
source_filename = "16/286.c"
target datalayout = "e-m:e-p270:32:32-p271:32:32-p272:64:64-i64:64-f80:128-n8:16:32:64-S128"
target triple = "x86_64-pc-linux-gnu"

@.str = private unnamed_addr constant [3 x i8] c"%d\00", align 1
@.str.1 = private unnamed_addr constant [5 x i8] c"%04d\00", align 1
@.str.2 = private unnamed_addr constant [5 x i8] c"%03d\00", align 1
@.str.3 = private unnamed_addr constant [5 x i8] c"%02d\00", align 1

; Function Attrs: noinline nounwind uwtable
define dso_local i32 @main() #0 {
  %1 = alloca i32, align 4
  %2 = alloca i32, align 4
  %3 = alloca i32, align 4
  %4 = alloca i32, align 4
  %5 = alloca i32, align 4
  %6 = alloca i32, align 4
  %7 = alloca i32, align 4
  store i32 0, i32* %1, align 4
  %8 = call i32 (i8*, ...) @__isoc99_scanf(i8* getelementptr inbounds ([3 x i8], [3 x i8]* @.str, i64 0, i64 0), i32* %2)
  %9 = load i32, i32* %2, align 4
  %10 = icmp sge i32 %9, 1000
  br i1 %10, label %11, label %49

11:                                               ; preds = %0
  %12 = load i32, i32* %2, align 4
  %13 = sdiv i32 %12, 1000
  store i32 %13, i32* %3, align 4
  %14 = load i32, i32* %2, align 4
  %15 = load i32, i32* %3, align 4
  %16 = mul nsw i32 1000, %15
  %17 = sub nsw i32 %14, %16
  %18 = sdiv i32 %17, 100
  store i32 %18, i32* %4, align 4
  %19 = load i32, i32* %2, align 4
  %20 = load i32, i32* %3, align 4
  %21 = mul nsw i32 1000, %20
  %22 = sub nsw i32 %19, %21
  %23 = load i32, i32* %4, align 4
  %24 = mul nsw i32 100, %23
  %25 = sub nsw i32 %22, %24
  %26 = sdiv i32 %25, 10
  store i32 %26, i32* %5, align 4
  %27 = load i32, i32* %2, align 4
  %28 = load i32, i32* %3, align 4
  %29 = mul nsw i32 1000, %28
  %30 = sub nsw i32 %27, %29
  %31 = load i32, i32* %4, align 4
  %32 = mul nsw i32 100, %31
  %33 = sub nsw i32 %30, %32
  %34 = load i32, i32* %5, align 4
  %35 = mul nsw i32 10, %34
  %36 = sub nsw i32 %33, %35
  store i32 %36, i32* %6, align 4
  %37 = load i32, i32* %6, align 4
  %38 = mul nsw i32 %37, 1000
  %39 = load i32, i32* %5, align 4
  %40 = mul nsw i32 %39, 100
  %41 = add nsw i32 %38, %40
  %42 = load i32, i32* %4, align 4
  %43 = mul nsw i32 %42, 10
  %44 = add nsw i32 %41, %43
  %45 = load i32, i32* %3, align 4
  %46 = add nsw i32 %44, %45
  store i32 %46, i32* %7, align 4
  %47 = load i32, i32* %7, align 4
  %48 = call i32 (i8*, ...) @printf(i8* getelementptr inbounds ([5 x i8], [5 x i8]* @.str.1, i64 0, i64 0), i32 %47)
  br label %49

49:                                               ; preds = %11, %0
  %50 = load i32, i32* %2, align 4
  %51 = icmp sge i32 %50, 100
  br i1 %51, label %52, label %79

52:                                               ; preds = %49
  %53 = load i32, i32* %2, align 4
  %54 = icmp slt i32 %53, 1000
  br i1 %54, label %55, label %79

55:                                               ; preds = %52
  %56 = load i32, i32* %2, align 4
  %57 = sdiv i32 %56, 100
  store i32 %57, i32* %3, align 4
  %58 = load i32, i32* %2, align 4
  %59 = load i32, i32* %3, align 4
  %60 = mul nsw i32 100, %59
  %61 = sub nsw i32 %58, %60
  %62 = sdiv i32 %61, 10
  store i32 %62, i32* %4, align 4
  %63 = load i32, i32* %2, align 4
  %64 = load i32, i32* %3, align 4
  %65 = mul nsw i32 100, %64
  %66 = sub nsw i32 %63, %65
  %67 = load i32, i32* %4, align 4
  %68 = mul nsw i32 10, %67
  %69 = sub nsw i32 %66, %68
  store i32 %69, i32* %5, align 4
  %70 = load i32, i32* %5, align 4
  %71 = mul nsw i32 %70, 100
  %72 = load i32, i32* %4, align 4
  %73 = mul nsw i32 %72, 10
  %74 = add nsw i32 %71, %73
  %75 = load i32, i32* %3, align 4
  %76 = add nsw i32 %74, %75
  store i32 %76, i32* %7, align 4
  %77 = load i32, i32* %7, align 4
  %78 = call i32 (i8*, ...) @printf(i8* getelementptr inbounds ([5 x i8], [5 x i8]* @.str.2, i64 0, i64 0), i32 %77)
  br label %79

79:                                               ; preds = %55, %52, %49
  %80 = load i32, i32* %2, align 4
  %81 = icmp sge i32 %80, 10
  br i1 %81, label %82, label %98

82:                                               ; preds = %79
  %83 = load i32, i32* %2, align 4
  %84 = icmp slt i32 %83, 100
  br i1 %84, label %85, label %98

85:                                               ; preds = %82
  %86 = load i32, i32* %2, align 4
  %87 = sdiv i32 %86, 10
  store i32 %87, i32* %3, align 4
  %88 = load i32, i32* %2, align 4
  %89 = load i32, i32* %3, align 4
  %90 = mul nsw i32 %89, 10
  %91 = sub nsw i32 %88, %90
  store i32 %91, i32* %4, align 4
  %92 = load i32, i32* %4, align 4
  %93 = mul nsw i32 %92, 10
  %94 = load i32, i32* %3, align 4
  %95 = add nsw i32 %93, %94
  store i32 %95, i32* %7, align 4
  %96 = load i32, i32* %7, align 4
  %97 = call i32 (i8*, ...) @printf(i8* getelementptr inbounds ([5 x i8], [5 x i8]* @.str.3, i64 0, i64 0), i32 %96)
  br label %98

98:                                               ; preds = %85, %82, %79
  %99 = load i32, i32* %2, align 4
  %100 = icmp slt i32 %99, 10
  br i1 %100, label %101, label %104

101:                                              ; preds = %98
  %102 = load i32, i32* %2, align 4
  %103 = call i32 (i8*, ...) @printf(i8* getelementptr inbounds ([3 x i8], [3 x i8]* @.str, i64 0, i64 0), i32 %102)
  br label %104

104:                                              ; preds = %101, %98
  ret i32 0
}

declare dso_local i32 @__isoc99_scanf(i8*, ...) #1

declare dso_local i32 @printf(i8*, ...) #1


!llvm.module.flags = !{!0}
!llvm.ident = !{!1}

!0 = !{i32 1, !"wchar_size", i32 4}
!1 = !{!"clang version 10.0.0-4ubuntu1 "}
